; Function Attrs: mustprogress uwtable
define hidden noundef zeroext i1 @_ZN4cvc58internal6theory11quantifiers13UnifContextIo14isStringSolvedEPNS2_11SygusUnifIoERKSt6vectorINS0_12NodeTemplateILb1EEESaIS8_EESC_(ptr nocapture noundef nonnull readonly align 8 dereferenceable(124) %this, ptr nocapture noundef readonly %sui, ptr nocapture noundef nonnull readonly align 8 dereferenceable(24) %ex_vals, ptr nocapture noundef nonnull readonly align 8 dereferenceable(24) %vals) local_unnamed_addr #3 align 2 {
entry:
  %_M_finish.i = getelementptr inbounds i8, ptr %vals, i64 8
  %0 = load ptr, ptr %_M_finish.i, align 8
  %1 = load ptr, ptr %vals, align 8
  %cmp16 = icmp eq ptr %0, %1
  br i1 %cmp16, label %return, label %for.body.lr.ph

for.body.lr.ph:                                   ; preds = %entry
  %d_vals = getelementptr inbounds i8, ptr %this, i64 8
  %d_true = getelementptr inbounds i8, ptr %sui, i64 296
  br label %for.body

for.body:                                         ; preds = %for.body.lr.ph, %for.inc
  %2 = phi ptr [ %1, %for.body.lr.ph ], [ %11, %for.inc ]
  %3 = phi ptr [ %0, %for.body.lr.ph ], [ %12, %for.inc ]
  %conv18 = phi i64 [ 0, %for.body.lr.ph ], [ %conv, %for.inc ]
  %j.017 = phi i32 [ 0, %for.body.lr.ph ], [ %inc, %for.inc ]
  %4 = load ptr, ptr %d_vals, align 8
  %add.ptr.i = getelementptr inbounds %"class.cvc5::internal::NodeTemplate", ptr %4, i64 %conv18
  %5 = load ptr, ptr %add.ptr.i, align 8
  %6 = load ptr, ptr %d_true, align 8
  %cmp.i = icmp eq ptr %5, %6
  br i1 %cmp.i, label %if.then, label %for.inc

if.then:                                          ; preds = %for.body
  %add.ptr.i8 = getelementptr inbounds %"class.cvc5::internal::NodeTemplate", ptr %2, i64 %conv18
  %call7 = tail call noundef zeroext i1 @_ZNK4cvc58internal12NodeTemplateILb1EE7isConstEv(ptr noundef nonnull align 8 dereferenceable(8) %add.ptr.i8)
  br i1 %call7, label %if.end, label %return

if.end:                                           ; preds = %if.then
  %7 = load ptr, ptr %ex_vals, align 8
  %add.ptr.i9 = getelementptr inbounds %"class.cvc5::internal::NodeTemplate", ptr %7, i64 %conv18
  %8 = load ptr, ptr %vals, align 8
  %add.ptr.i10 = getelementptr inbounds %"class.cvc5::internal::NodeTemplate", ptr %8, i64 %conv18
  %9 = load ptr, ptr %add.ptr.i9, align 8
  %10 = load ptr, ptr %add.ptr.i10, align 8
  %cmp.i11.not = icmp eq ptr %9, %10
  br i1 %cmp.i11.not, label %if.end.for.inc_crit_edge, label %return

if.end.for.inc_crit_edge:                         ; preds = %if.end
  %.pre = load ptr, ptr %_M_finish.i, align 8
  br label %for.inc

for.inc:                                          ; preds = %if.end.for.inc_crit_edge, %for.body
  %11 = phi ptr [ %8, %if.end.for.inc_crit_edge ], [ %2, %for.body ]
  %12 = phi ptr [ %.pre, %if.end.for.inc_crit_edge ], [ %3, %for.body ]
  %inc = add i32 %j.017, 1
  %conv = zext i32 %inc to i64
  %sub.ptr.lhs.cast.i = ptrtoint ptr %12 to i64
  %sub.ptr.rhs.cast.i = ptrtoint ptr %11 to i64
  %sub.ptr.sub.i = sub i64 %sub.ptr.lhs.cast.i, %sub.ptr.rhs.cast.i
  %sub.ptr.div.i = ashr exact i64 %sub.ptr.sub.i, 3
  %cmp.not = icmp ugt i64 %sub.ptr.div.i, %conv
  br i1 %cmp.not, label %for.body, label %return, !llvm.loop !13

return:                                           ; preds = %if.then, %if.end, %for.inc, %entry
  %cmp.lcssa = phi i1 [ true, %entry ], [ true, %for.inc ], [ false, %if.end ], [ false, %if.then ]
  ret i1 %cmp.lcssa
}